(dp0
S'/wiki/Category:Machine_learning_algorithms'
p1
c__builtin__
set
p2
((lp3
S'/wiki/main_page'
p4
aS'/wiki/loss_functions_for_classification'
p5
aS'/wiki/genetic_algorithm_for_rule_set_production'
p6
aS'/wiki/skill_chaining'
p7
aS'/wiki/reinforcement_learning'
p8
aS'/wiki/prefrontal_cortex_basal_ganglia_working_memory'
p9
aS'/wiki/generec'
p10
aS'/wiki/special:whatlinkshere/category:machine_learning_algorithms'
p11
aS'/wiki/query_level_feature'
p12
aS'/wiki/manifold_alignment'
p13
aS'/wiki/wikipedia:file_upload_wizard'
p14
aS'/wiki/list_of_machine_learning_concepts'
p15
aS'/wiki/minimum_redundancy_feature_selection'
p16
aS'/wiki/category:decision_trees'
p17
aS'/wiki/bootstrap_aggregating'
p18
aS'/wiki/hyper_basis_function_network'
p19
aS'/wiki/category:commons_category_without_a_link_on_wikidata'
p20
aS'/wiki/idistance'
p21
aS'/wiki/category:data_mining'
p22
aS'/wiki/diffusion_map'
p23
aS'/wiki/kernel_principal_component_analysis'
p24
aS'/wiki/cn2_algorithm'
p25
aS'/wiki/backpropagation'
p26
aS'/wiki/sparse_pca'
p27
aS'/wiki/leabra'
p28
aS'/wiki/weighted_majority_algorithm'
p29
aS'/wiki/logic_learning_machine'
p30
aS'/wiki/rprop'
p31
aS'/wiki/portal:contents'
p32
aS'/wiki/stochastic_gradient_descent'
p33
aS'/wiki/category:machine_learning'
p34
aS'/wiki/dynamic_time_warping'
p35
aS'/wiki/quadratic_unconstrained_binary_optimization'
p36
aS'/wiki/fastica'
p37
aS'/wiki/randomized_weighted_majority_algorithm'
p38
aS'/wiki/kernel_methods_for_vector_output'
p39
aS'/wiki/wikipedia:about'
p40
aS'/wiki/hexq'
p41
aS'/wiki/category:classification_algorithms'
p42
aS'/wiki/category:machine_learning_algorithms'
p43
aS'/wiki/special:recentchangeslinked/category:machine_learning_algorithms'
p44
aS'/wiki/local_outlier_factor'
p45
aS'/wiki/special:random'
p46
aS'/wiki/wikipedia:community_portal'
p47
aS'/wiki/help:contents'
p48
aS'/wiki/radial_basis_function_network'
p49
aS'/wiki/quickprop'
p50
aS'/wiki/pvlv'
p51
aS'/wiki/category:algorithms'
p52
aS'/wiki/help:category'
p53
aS'/wiki/logitboost'
p54
aS'/wiki/constructing_skill_trees'
p55
aS'/wiki/wikipedia:general_disclaimer'
p56
aS'/wiki/temporal_difference_learning'
p57
aS'/wiki/special:specialpages'
p58
aS'/wiki/portal:featured_content'
p59
aS'/wiki/portal:current_events'
p60
aS'/wiki/multiple_kernel_learning'
p61
aS'/wiki/special:recentchanges'
p62
aS'/wiki/evolutionary_multimodal_optimization'
p63
aS'/wiki/online_machine_learning'
p64
atp65
Rp66
sS'/wiki/Category:Organs'
p67
g2
((lp68
S'/wiki/category:vestigial_organs'
p69
aS'/wiki/wikipedia:community_portal'
p70
aS'/wiki/category:organ_systems'
p71
aS'/wiki/thymus'
p72
aS'/wiki/category:organ_failure'
p73
aS'/wiki/nuchal_organ'
p74
aS'/wiki/main_page'
p75
aS'/wiki/splanchnic'
p76
aS'/wiki/wikipedia:file_upload_wizard'
p77
aS'/wiki/lung'
p78
aS'/wiki/placenta'
p79
aS'/wiki/help:contents'
p80
aS'/wiki/gill'
p81
aS'/wiki/ovary'
p82
aS'/wiki/category:brain'
p83
aS'/wiki/brain'
p84
aS'/wiki/large_intestine'
p85
aS'/wiki/category:lung'
p86
aS'/wiki/category:gallbladder'
p87
aS'/wiki/category:sensory_organs'
p88
aS'/wiki/skin'
p89
aS'/wiki/category:commons_category_with_local_link_same_as_on_wikidata'
p90
aS'/wiki/special:whatlinkshere/category:organs'
p91
aS'/wiki/category:kidney'
p92
aS'/wiki/small_intestine'
p93
aS'/wiki/category:organs'
p94
aS'/wiki/category:heart'
p95
aS'/wiki/portal:contents'
p96
aS'/wiki/integument'
p97
aS'/wiki/category:urinary_bladder'
p98
aS'/wiki/fish_gill'
p99
aS'/wiki/category:artificial_organs'
p100
aS'/wiki/organ_of_bojanus'
p101
aS'/wiki/branchiostegal_lung'
p102
aS'/wiki/esophagus'
p103
aS'/wiki/special:recentchanges'
p104
aS'/wiki/wikipedia:about'
p105
aS'/wiki/swim_bladder'
p106
aS'/wiki/help:categories'
p107
aS'/wiki/category:sex_organs'
p108
aS'/wiki/gallbladder'
p109
aS'/wiki/special:random'
p110
aS'/wiki/human_skin'
p111
aS'/wiki/urinary_bladder'
p112
aS'/wiki/special:recentchangeslinked/category:organs'
p113
aS'/wiki/uterus'
p114
aS'/wiki/liver'
p115
aS'/wiki/category:organ_trafficking'
p116
aS'/wiki/biology'
p117
aS'/wiki/help:category'
p118
aS'/wiki/category:anatomy'
p119
aS'/wiki/category_talk:organs'
p120
aS'/wiki/category:liver'
p121
aS'/wiki/category:breast'
p122
aS'/wiki/wikipedia:general_disclaimer'
p123
aS'/wiki/splanchnology'
p124
aS'/wiki/category:pancreas'
p125
aS'/wiki/special:specialpages'
p126
aS'/wiki/portal:featured_content'
p127
aS'/wiki/portal:current_events'
p128
aS'/wiki/neuromodulation'
p129
aS'/wiki/spleen'
p130
aS'/wiki/category:stomach'
p131
aS'/wiki/natalid_organ'
p132
aS'/wiki/stomach'
p133
aS'/wiki/category:glands'
p134
aS'/wiki/category:wikipedia_books_on_organs'
p135
atp136
Rp137
sS'/wiki/Category:Rare_diseases'
p138
g2
((lp139
S'/wiki/conjoined_twins'
p140
aS'/wiki/brunner_syndrome'
p141
aS'/wiki/category:rare_cancers'
p142
aS'/wiki/cholesteryl_ester_storage_disease'
p143
aS'/wiki/congenital_stromal_corneal_dystrophy'
p144
aS'/wiki/faces_syndrome'
p145
aS'/wiki/wikipedia:file_upload_wizard'
p146
aS'/wiki/cloacal_exstrophy'
p147
aS'/wiki/copenhagen_disease'
p148
aS'/wiki/acheiropodia'
p149
aS'/wiki/fatal_familial_insomnia'
p150
aS'/wiki/aredyld_syndrome'
p151
aS'/wiki/arrhinia'
p152
aS'/wiki/dubowitz_syndrome'
p153
aS'/wiki/argininosuccinic_aciduria'
p154
aS'/wiki/aquagenic_urticaria'
p155
aS'/wiki/category:commons_category_with_local_link_same_as_on_wikidata'
p156
aS'/wiki/benedikt_syndrome'
p157
aS'/wiki/carpenter_syndrome'
p158
aS'/wiki/bloom_syndrome'
p159
aS'/wiki/canavan_disease'
p160
aS'/wiki/diffuse_panbronchiolitis'
p161
aS'/wiki/boomerang_dysplasia'
p162
aS'/wiki/craniopagus_parasiticus'
p163
aS'/wiki/aphallia'
p164
aS'/wiki/abdominal_epilepsy'
p165
aS'/wiki/apert_syndrome'
p166
aS'/wiki/carnosinemia'
p167
aS'/wiki/acrodysostosis'
p168
aS'/wiki/cri_du_chat'
p169
aS'/wiki/dipygus'
p170
aS'/wiki/fibrochondrogenesis'
p171
aS'/wiki/cloves_syndrome'
p172
aS'/wiki/facioscapulohumeral_muscular_dystrophy'
p173
aS'/wiki/crome_syndrome'
p174
aS'/wiki/special:recentchangeslinked/category:rare_diseases'
p175
aS'/wiki/adenylosuccinate_lyase_deficiency'
p176
aS'/wiki/cystic_fibrosis'
p177
aS'/wiki/blue_diaper_syndrome'
p178
aS'/wiki/dravet_syndrome'
p179
aS'/wiki/category_talk:rare_diseases'
p180
aS'/wiki/danon_disease'
p181
aS'/wiki/batten_disease'
p182
aS'/wiki/adenosine_monophosphate_deaminase_deficiency_type_1'
p183
aS'/wiki/enterolith'
p184
aS'/wiki/cornelia_de_lange_syndrome'
p185
aS'/wiki/dyskeratosis_congenita'
p186
aS'/wiki/antisynthetase_syndrome'
p187
aS'/wiki/cockayne_syndrome'
p188
aS'/wiki/asplenia_with_cardiovascular_anomalies'
p189
aS'/wiki/autoimmune_polyendocrine_syndrome'
p190
aS'/wiki/category:progeroid_syndromes'
p191
aS'/wiki/help:contents'
p192
aS'/wiki/cyclic_vomiting_syndrome'
p193
aS'/wiki/aposthia'
p194
aS'/wiki/alagille_syndrome'
p195
aS'/wiki/special:whatlinkshere/category:rare_diseases'
p196
aS'/wiki/cleidocranial_dysostosis'
p197
aS'/wiki/cogan_syndrome'
p198
aS'/wiki/category:arthrogryposis'
p199
aS'/wiki/chromosome_5q_deletion_syndrome'
p200
aS'/wiki/chorea_acanthocytosis'
p201
aS'/wiki/cerebroretinal_microangiopathy_with_calcifications_and_cysts'
p202
aS'/wiki/carcinosarcoma'
p203
aS'/wiki/wikipedia:about'
p204
aS'/wiki/category:rare_infectious_diseases'
p205
aS'/wiki/acromicric_dysplasia'
p206
aS'/wiki/capillary_leak_syndrome'
p207
aS'/wiki/edwards_syndrome'
p208
aS'/wiki/barakat_syndrome'
p209
aS'/wiki/3c_syndrome'
p210
aS'/wiki/congenital_insensitivity_to_pain'
p211
aS'/wiki/bare_lymphocyte_syndrome_2'
p212
aS'/wiki/clostridium_sordellii'
p213
aS'/wiki/east_syndrome'
p214
aS'/wiki/apparent_mineralocorticoid_excess_syndrome'
p215
aS'/wiki/diphallia'
p216
aS'/wiki/birdshot_chorioretinopathy'
p217
aS'/wiki/daentl_townsend_siegel_syndrome'
p218
aS'/wiki/aspartylglucosaminuria'
p219
aS'/wiki/aromatase_excess_syndrome'
p220
aS'/wiki/wikipedia:general_disclaimer'
p221
aS'/wiki/benign_symmetric_lipomatosis'
p222
aS'/wiki/ablepharon_macrostomia_syndrome'
p223
aS'/wiki/rare_disease'
p224
aS'/wiki/arthrogryposis'
p225
aS'/wiki/aldolase_a_deficiency'
p226
aS'/wiki/behr_syndrome'
p227
aS'/wiki/epidermolytic_hyperkeratosis'
p228
aS'/wiki/acanthamoeba_keratitis'
p229
aS'/wiki/category:diseases_and_disorders'
p230
aS'/wiki/congenital_insensitivity_to_pain_with_anhidrosis'
p231
aS'/wiki/arterial_tortuosity_syndrome'
p232
aS'/wiki/dysferlinopathy'
p233
aS'/wiki/fibrodysplasia_ossificans_progressiva'
p234
aS'/wiki/autosomal_dominant_polycystic_kidney_disease'
p235
aS'/wiki/alveolar_capillary_dysplasia'
p236
aS'/wiki/13q_deletion_syndrome'
p237
aS'/wiki/ectopia_cordis'
p238
aS'/wiki/catamenial_pneumothorax'
p239
aS'/wiki/acrocallosal_syndrome'
p240
aS'/wiki/category:supernumerary_body_parts'
p241
aS'/wiki/ectrodactyly'
p242
aS'/wiki/canadian_organization_for_rare_disorders'
p243
aS'/wiki/main_page'
p244
aS'/wiki/atransferrinemia'
p245
aS'/wiki/achromatopsia'
p246
aS'/wiki/caroli_disease'
p247
aS'/wiki/familial_isolated_vitamin_e_deficiency'
p248
aS'/wiki/category:cystic_fibrosis'
p249
aS'/wiki/fetal_trimethadione_syndrome'
p250
aS'/wiki/portal:contents'
p251
aS'/wiki/cowden_syndrome'
p252
aS'/wiki/eiken_syndrome'
p253
aS'/wiki/dysfibrinogenemia'
p254
aS'/wiki/antithrombin_iii_deficiency'
p255
aS'/wiki/acromesomelic_dysplasia'
p256
aS'/wiki/help:categories'
p257
aS'/wiki/carnitine_palmitoyltransferase_i_deficiency'
p258
aS'/wiki/atypical_trigeminal_neuralgia'
p259
aS'/wiki/corticobasal_degeneration'
p260
aS'/wiki/adermatoglyphia'
p261
aS'/wiki/absent_adrenal_gland'
p262
aS'/wiki/eem_syndrome'
p263
aS'/wiki/alexander_disease'
p264
aS'/wiki/portal:featured_content'
p265
aS'/wiki/portal:current_events'
p266
aS'/wiki/diabetes_insipidus'
p267
aS'/wiki/special:recentchanges'
p268
aS'/wiki/adipsia'
p269
aS'/wiki/degos_disease'
p270
aS'/wiki/dahlberg_borer_newcomer_syndrome'
p271
aS'/wiki/caudal_regression_syndrome'
p272
aS'/wiki/amyotrophic_lateral_sclerosis'
p273
aS'/wiki/wikipedia:community_portal'
p274
aS'/wiki/alien_hand_syndrome'
p275
aS'/wiki/crouzon_syndrome'
p276
aS'/wiki/category:people_with_caudal_regression_syndrome'
p277
aS'/wiki/camfak_syndrome'
p278
aS'/wiki/congenital_chloride_diarrhea'
p279
aS'/wiki/donohue_syndrome'
p280
aS'/wiki/autosomal_recessive_polycystic_kidney_disease'
p281
aS'/wiki/endocardial_fibroelastosis'
p282
aS'/wiki/category:rare_diseases'
p283
aS'/wiki/adrenoleukodystrophy'
p284
aS'/wiki/acrofrontofacionasal_dysostosis'
p285
aS'/wiki/category:intersex_and_medicine'
p286
aS'/wiki/adenosine_deaminase_deficiency'
p287
aS'/wiki/fabry_disease'
p288
aS'/wiki/facial_onset_sensory_motor_neuropathy_syndrome'
p289
aS'/wiki/florid_cutaneous_papillomatosis'
p290
aS'/wiki/abcd_syndrome'
p291
aS'/wiki/special:random'
p292
aS'/wiki/congenital_disorder_of_glycosylation_type_iic'
p293
aS'/wiki/3q29_microdeletion_syndrome'
p294
aS'/wiki/bladder_exstrophy'
p295
aS'/wiki/biliary_atresia'
p296
aS'/wiki/cooks_syndrome'
p297
aS'/wiki/autosomal_dominant_hypophosphatemic_rickets'
p298
aS'/wiki/cerebrotendineous_xanthomatosis'
p299
aS'/wiki/cyclopia'
p300
aS'/wiki/angelman_syndrome'
p301
aS'/wiki/adiposis_dolorosa'
p302
aS'/wiki/congenital_ichthyosiform_erythroderma'
p303
aS'/wiki/epidermolysis_bullosa_simplex'
p304
aS'/wiki/abetalipoproteinemia'
p305
aS'/wiki/confluent_and_reticulated_papillomatosis'
p306
aS'/wiki/8p23.1_duplication_syndrome'
p307
aS'/wiki/cutis_marmorata_telangiectatica_congenita'
p308
aS'/wiki/adducted_thumb_syndrome'
p309
aS'/wiki/epidermolysis_bullosa'
p310
aS'/wiki/help:category'
p311
aS'/wiki/febrile_neutrophilic_dermatosis'
p312
aS'/wiki/currarino_syndrome'
p313
aS'/wiki/craniodiaphyseal_dysplasia'
p314
aS'/wiki/epidermodysplasia_verruciformis'
p315
aS'/wiki/special:specialpages'
p316
aS'/wiki/alopecia_universalis'
p317
aS'/wiki/finnish_heritage_disease'
p318
aS'/wiki/category:mesothelioma'
p319
aS'/wiki/farber_disease'
p320
aS'/wiki/dermatopathia_pigmentosa_reticularis'
p321
atp322
Rp323
sS'/wiki/Category:Cancer'
p324
g2
((lp325
S'/wiki/category:diseases_and_disorders'
p326
aS'/wiki/alcohol_and_cancer'
p327
aS'/wiki/main_page'
p328
aS'/wiki/wikipedia:community_portal'
p329
aS'/wiki/category:cancer_pathology'
p330
aS'/wiki/gold_nanobeacons'
p331
aS'/wiki/help:categories'
p332
aS'/wiki/category:cancer_treatments'
p333
aS'/wiki/gel_dosimetry'
p334
aS'/wiki/category:people_with_cancer'
p335
aS'/wiki/tumour_heterogeneity'
p336
aS'/wiki/help:contents'
p337
aS'/wiki/molecular_therapy'
p338
aS'/wiki/causes_of_cancer'
p339
aS'/wiki/list_of_phase_iii_cancer_clinical_trials_2014'
p340
aS'/wiki/category:cancer_organizations'
p341
aS'/wiki/immune_cycle'
p342
aS'/wiki/category:commons_category_with_local_link_same_as_on_wikidata'
p343
aS'/wiki/microsatellite_instability'
p344
aS'/wiki/cancer_genome_anatomy_project'
p345
aS'/wiki/portal:contents'
p346
aS'/wiki/cvac'
p347
aS'/wiki/category:cancer_in_the_united_kingdom'
p348
aS'/wiki/category:cancer_clusters'
p349
aS'/wiki/category:neoplasms'
p350
aS'/wiki/azzopardi_phenomenon'
p351
aS'/wiki/category:oncology'
p352
aS'/wiki/special:recentchanges'
p353
aS'/wiki/category:cancer'
p354
aS'/wiki/cancer_systems_biology'
p355
aS'/wiki/category:works_about_cancer'
p356
aS'/wiki/cancer'
p357
aS'/wiki/special:random'
p358
aS'/wiki/special:whatlinkshere/category:cancer'
p359
aS'/wiki/vasculogenic_mimicry'
p360
aS'/wiki/category:cancer_research'
p361
aS'/wiki/category:carcinogenesis'
p362
aS'/wiki/category:cancer_in_india'
p363
aS'/wiki/interventional_oncology'
p364
aS'/wiki/reactive_oxygen_species'
p365
aS'/wiki/medicinal_fungi'
p366
aS'/wiki/category_talk:cancer'
p367
aS'/wiki/category:cancer_awareness'
p368
aS'/wiki/help:category'
p369
aS'/wiki/streptomyces_isolates'
p370
aS'/wiki/wikipedia:file_upload_wizard'
p371
aS'/wiki/list_of_countries_by_cancer_rate'
p372
aS'/wiki/differentiation_therapy'
p373
aS'/wiki/wikipedia:general_disclaimer'
p374
aS'/wiki/special:specialpages'
p375
aS'/wiki/portal:featured_content'
p376
aS'/wiki/portal:current_events'
p377
aS'/wiki/list_of_phase_iii_cancer_clinical_trials_2015'
p378
aS'/wiki/homogeneously_staining_region'
p379
aS'/wiki/cancer_prevention'
p380
aS'/wiki/special:recentchangeslinked/category:cancer'
p381
aS'/wiki/category:types_of_cancer'
p382
aS'/wiki/wikipedia:about'
p383
aS'/wiki/chromatin_remodeling'
p384
aS'/wiki/cancer_and_nausea'
p385
atp386
Rp387
sS'/wiki/Category:Congenital_disorders'
p388
g2
((lp389
S'/wiki/main_page'
p390
aS'/wiki/michels_syndrome'
p391
aS'/wiki/crandall_syndrome'
p392
aS'/wiki/van_goethem_syndrome'
p393
aS'/wiki/wikipedia:file_upload_wizard'
p394
aS'/wiki/cloacal_exstrophy'
p395
aS'/wiki/late_congenital_syphilitic_oculopathy'
p396
aS'/wiki/katz_syndrome'
p397
aS'/wiki/myelokathexis'
p398
aS'/wiki/congenital_myasthenic_syndrome'
p399
aS'/wiki/triphalangeal_thumb'
p400
aS'/wiki/cerebral_palsy'
p401
aS'/wiki/pilotto_syndrome'
p402
aS'/wiki/arachnoid_cyst'
p403
aS'/wiki/laryngeal_cleft'
p404
aS'/wiki/vacterl_association'
p405
aS'/wiki/category:congenital_disorders_of_respiratory_system'
p406
aS'/wiki/ayazi_syndrome'
p407
aS'/wiki/first_arch_syndrome'
p408
aS'/wiki/halal_syndrome'
p409
aS'/wiki/trevor_disease'
p410
aS'/wiki/proteus_syndrome'
p411
aS'/wiki/sacrococcygeal_teratoma'
p412
aS'/wiki/boomerang_dysplasia'
p413
aS'/wiki/craniopagus_parasiticus'
p414
aS'/wiki/special:random'
p415
aS'/wiki/category:congenital_disorders_of_digestive_system'
p416
aS'/wiki/category:congenital_malformation_due_to_exogenous_toxicity'
p417
aS'/wiki/pigeon_toe'
p418
aS'/wiki/parastremmatic_dwarfism'
p419
aS'/wiki/congenital_fiber_type_disproportion'
p420
aS'/wiki/fibrochondrogenesis'
p421
aS'/wiki/category:congenital_disorders_of_endocrine_system'
p422
aS'/wiki/congenital_afibrinogenemia'
p423
aS'/wiki/category:disability'
p424
aS'/wiki/constriction_ring_syndrome'
p425
aS'/wiki/1q21.1_deletion_syndrome'
p426
aS'/wiki/cystic_fibrosis'
p427
aS'/wiki/childbirth'
p428
aS'/wiki/persistent_cloaca'
p429
aS'/wiki/cephalic_disorder'
p430
aS'/wiki/hemifacial_microsomia'
p431
aS'/wiki/minor_physical_anomalies'
p432
aS'/wiki/orofaciodigital_syndrome_1'
p433
aS'/wiki/neurocristopathy'
p434
aS'/wiki/fetus_in_fetu'
p435
aS'/wiki/spondyloepimetaphyseal_dysplasia'
p436
aS'/wiki/fibrodysplasia_ossificans_progressiva'
p437
aS'/wiki/category:teratogens'
p438
aS'/wiki/weaver_syndrome'
p439
aS'/wiki/hemifacial_hypertrophy'
p440
aS'/wiki/ectopic_pancreas'
p441
aS'/wiki/parasitic_twin'
p442
aS'/wiki/situs_ambiguus'
p443
aS'/wiki/cherubs'
p444
aS'/wiki/marfanoid'
p445
aS'/wiki/congenital_disorder'
p446
aS'/wiki/ulas_family'
p447
aS'/wiki/medicine'
p448
aS'/wiki/keutel_syndrome'
p449
aS'/wiki/help:contents'
p450
aS'/wiki/atransferrinemia'
p451
aS'/wiki/nager_acrofacial_dysostosis'
p452
aS'/wiki/cretinism'
p453
aS'/wiki/benjamin_syndrome'
p454
aS'/wiki/neonatal_teeth'
p455
aS'/wiki/achondrogenesis_type_2'
p456
aS'/wiki/seckel_syndrome'
p457
aS'/wiki/cyclopia'
p458
aS'/wiki/mdp_syndrome'
p459
aS'/wiki/special:recentchangeslinked/category:congenital_disorders'
p460
aS'/wiki/factor_i_deficiency'
p461
aS'/wiki/wikipedia:about'
p462
aS'/wiki/osteochondroprogenitor_cell'
p463
aS'/wiki/barakat_syndrome'
p464
aS'/wiki/bangstad_syndrome'
p465
aS'/wiki/polymelia'
p466
aS'/wiki/category:congenital_disorders_of_genital_organs'
p467
aS'/wiki/ring_chromosome_14_syndrome'
p468
aS'/wiki/kniest_dysplasia'
p469
aS'/wiki/category:poisoning_and_certain_other_consequences_of_external_causes'
p470
aS'/wiki/murcs_association'
p471
aS'/wiki/category:cystic_fibrosis'
p472
aS'/wiki/worth_syndrome'
p473
aS'/wiki/pelvic_digit'
p474
aS'/wiki/porencephaly'
p475
aS'/wiki/rudiger_syndrome'
p476
aS'/wiki/category:diseases_and_disorders'
p477
aS'/wiki/category:commons_category_with_local_link_same_as_on_wikidata'
p478
aS'/wiki/duane_syndrome'
p479
aS'/wiki/structural_variation'
p480
aS'/wiki/tietz_syndrome'
p481
aS'/wiki/neurocutaneous_melanosis'
p482
aS'/wiki/ethmocephaly'
p483
aS'/wiki/aagenaes_syndrome'
p484
aS'/wiki/category:congenital_disorders_of_musculoskeletal_system'
p485
aS'/wiki/urofacial_syndrome'
p486
aS'/wiki/velopharyngeal_inadequacy'
p487
aS'/wiki/category:congenital_disorders_of_circulatory_system'
p488
aS'/wiki/monstrous_birth'
p489
aS'/wiki/category:inborn_errors_of_metabolism'
p490
aS'/wiki/mature_teratoma'
p491
aS'/wiki/clefting_prevalence_in_different_cultures'
p492
aS'/wiki/category:congenital_disorders_of_nervous_system'
p493
aS'/wiki/sacral_dimple'
p494
aS'/wiki/category:congenital_disorders_of_urinary_system'
p495
aS'/wiki/femur_fibula_ulna_syndrome'
p496
aS'/wiki/special:recentchanges'
p497
aS'/wiki/help:categories'
p498
aS'/wiki/cat_eye_syndrome'
p499
aS'/wiki/van_der_woude_syndrome'
p500
aS'/wiki/wikipedia:community_portal'
p501
aS'/wiki/sirenomelia'
p502
aS'/wiki/animal_chimerism'
p503
aS'/wiki/multiple_abnormalities'
p504
aS'/wiki/special:whatlinkshere/category:congenital_disorders'
p505
aS'/wiki/category:genetics'
p506
aS'/wiki/congenital_malaria'
p507
aS'/wiki/facial_cleft'
p508
aS'/wiki/brugada_syndrome'
p509
aS'/wiki/situs_inversus'
p510
aS'/wiki/malformative_syndrome'
p511
aS'/wiki/amyoplasia'
p512
aS'/wiki/palatal_obturator'
p513
aS'/wiki/portal:featured_content'
p514
aS'/wiki/portal:current_events'
p515
aS'/wiki/goldenhar_syndrome'
p516
aS'/wiki/asplenia_with_cardiovascular_anomalies'
p517
aS'/wiki/spondyloperipheral_dysplasia'
p518
aS'/wiki/caudal_regression_syndrome'
p519
aS'/wiki/meromelia'
p520
aS'/wiki/wikipedia:general_disclaimer'
p521
aS'/wiki/kaufman_oculocerebrofacial_syndrome'
p522
aS'/wiki/endocardial_fibroelastosis'
p523
aS'/wiki/sacral_agenesis'
p524
aS'/wiki/camfak_syndrome'
p525
aS'/wiki/portal:contents'
p526
aS'/wiki/list_of_congenital_disorders'
p527
aS'/wiki/achondrogenesis_type_1b'
p528
aS'/wiki/hydrolethalus_syndrome'
p529
aS'/wiki/achondrogenesis'
p530
aS'/wiki/opsismodysplasia'
p531
aS'/wiki/acrodysostosis'
p532
aS'/wiki/malpuech_facial_clefting_syndrome'
p533
aS'/wiki/category:congenital_disorders_of_breasts'
p534
aS'/wiki/vestigial_twin'
p535
aS'/wiki/mulibrey_nanism'
p536
aS'/wiki/short_syndrome'
p537
aS'/wiki/teratoma'
p538
aS'/wiki/radial_dysplasia'
p539
aS'/wiki/patterson_syndrome'
p540
aS'/wiki/category_talk:congenital_disorders'
p541
aS'/wiki/hearing_loss_with_craniofacial_syndromes'
p542
aS'/wiki/ponseti_method'
p543
aS'/wiki/malouf_syndrome'
p544
aS'/wiki/category:pediatrics'
p545
aS'/wiki/diprosopus'
p546
aS'/wiki/category:cutaneous_congenital_anomalies'
p547
aS'/wiki/nakajo_syndrome'
p548
aS'/wiki/camptodactyly'
p549
aS'/wiki/cystic_hygroma'
p550
aS'/wiki/congenital_rubella_syndrome'
p551
aS'/wiki/langer_mesomelic_dysplasia'
p552
aS'/wiki/help:category'
p553
aS'/wiki/thumb_hypoplasia'
p554
aS'/wiki/vici_syndrome'
p555
aS'/wiki/craniofacial_team'
p556
aS'/wiki/1q21.1_copy_number_variations'
p557
aS'/wiki/special:specialpages'
p558
aS'/wiki/meningohydroencephalocoele'
p559
aS'/wiki/morm_syndrome'
p560
aS'/wiki/nasodigitoacoustic_syndrome'
p561
aS'/wiki/denis_browne_bar'
p562
aS'/wiki/category:congenital_disorders'
p563
aS'/wiki/muenke_syndrome'
p564
aS'/wiki/dipygus'
p565
aS'/wiki/proximal_femoral_focal_deficiency'
p566
aS'/wiki/kvikk_case'
p567
aS'/wiki/trichothiodystrophy'
p568
atp569
Rp570
sS'/wiki/Category:Infectious_diseases'
p571
g2
((lp572
S'/wiki/main_page'
p573
aS'/wiki/prion'
p574
aS'/wiki/emerging_infectious_disease'
p575
aS'/wiki/negative_room_pressure'
p576
aS'/wiki/bill_of_health'
p577
aS'/wiki/aspergillosis'
p578
aS'/wiki/pharyngitis'
p579
aS'/wiki/infection_control'
p580
aS'/wiki/wikipedia:file_upload_wizard'
p581
aS'/wiki/category:infectious_diseases_in_fiction'
p582
aS'/wiki/category:immunology'
p583
aS'/wiki/category:epidemics'
p584
aS'/wiki/pathogenic_fungi'
p585
aS'/wiki/quarantine'
p586
aS'/wiki/schistosomiasis'
p587
aS'/wiki/category:infectious_disease_stubs'
p588
aS'/wiki/intestinal_infectious_diseases'
p589
aS'/wiki/picardy_sweat'
p590
aS'/wiki/category:commons_category_with_local_link_same_as_on_wikidata'
p591
aS'/wiki/louis_pasteur'
p592
aS'/wiki/natural_reservoir'
p593
aS'/wiki/horizontal_disease_transmission'
p594
aS'/wiki/bennett_lorber'
p595
aS'/wiki/microbiology'
p596
aS'/wiki/fungus'
p597
aS'/wiki/lower_respiratory_tract_infection'
p598
aS'/wiki/category:parasites'
p599
aS'/wiki/evolution_of_infectious_disease'
p600
aS'/wiki/category:microbiology_journals'
p601
aS'/wiki/category:parasitic_diseases'
p602
aS'/wiki/special:random'
p603
aS'/wiki/pneumonia'
p604
aS'/wiki/tuberculosis'
p605
aS'/wiki/parasite'
p606
aS'/wiki/wound_licking'
p607
aS'/wiki/infection_control_society_of_pakistan'
p608
aS'/wiki/category:tropical_diseases'
p609
aS'/wiki/robert_koch'
p610
aS'/wiki/cholera'
p611
aS'/wiki/contagious_disease'
p612
aS'/wiki/infectious_disease'
p613
aS'/wiki/category:insect_vectors_of_pathogens'
p614
aS'/wiki/mycotic_aneurysm'
p615
aS'/wiki/category:eradicated_diseases'
p616
aS'/wiki/infectious_diseases_institute'
p617
aS'/wiki/protothecosis'
p618
aS'/wiki/special:whatlinkshere/category:infectious_diseases'
p619
aS'/wiki/category:biological_warfare'
p620
aS'/wiki/category:sexually_transmitted_diseases_and_infections'
p621
aS'/wiki/infectious_diseases_society_of_america'
p622
aS'/wiki/environmental_enteropathy'
p623
aS'/wiki/category:deaths_from_infectious_disease'
p624
aS'/wiki/eradication_of_infectious_diseases'
p625
aS'/wiki/infectious_dose'
p626
aS'/wiki/smallpox'
p627
aS'/wiki/cryptic_infection'
p628
aS'/wiki/category_talk:infectious_diseases'
p629
aS'/wiki/help:contents'
p630
aS'/wiki/phlegmon'
p631
aS'/wiki/category:pathogenic_microbes'
p632
aS'/wiki/migrant_health'
p633
aS'/wiki/list_of_clinically_important_bacteria'
p634
aS'/wiki/list_of_infections_of_the_central_nervous_system'
p635
aS'/wiki/category:infections_specific_to_the_perinatal_period'
p636
aS'/wiki/notifiable_disease'
p637
aS'/wiki/category:animal_disease_control'
p638
aS'/wiki/malaria'
p639
aS'/wiki/template_talk:infectious_disease'
p640
aS'/wiki/crysodavarious'
p641
aS'/wiki/infection'
p642
aS'/wiki/wikipedia:about'
p643
aS'/wiki/category:rare_infectious_diseases'
p644
aS'/wiki/alexander_fleming'
p645
aS'/wiki/amoebic_dysentery'
p646
aS'/wiki/protozoa'
p647
aS'/wiki/mycosis'
p648
aS'/wiki/ignaz_semmelweis'
p649
aS'/wiki/sepsis'
p650
aS'/wiki/category:intestinal_infectious_diseases'
p651
aS'/wiki/opportunistic_infection'
p652
aS'/wiki/special:recentchangeslinked/category:infectious_diseases'
p653
aS'/wiki/category:serology'
p654
aS'/wiki/vaccination'
p655
aS'/wiki/syphilis'
p656
aS'/wiki/genitourinary_amoebiasis'
p657
aS'/wiki/infectious_causes_of_cancer'
p658
aS'/wiki/wikipedia:general_disclaimer'
p659
aS'/wiki/category:foodborne_illnesses'
p660
aS'/wiki/virus'
p661
aS'/wiki/zoonosis'
p662
aS'/wiki/influenza'
p663
aS'/wiki/virology'
p664
aS'/wiki/emphysematous_cystitis'
p665
aS'/wiki/molecular_mimicry'
p666
aS'/wiki/respiratory_tract_infection'
p667
aS'/wiki/category:diseases_and_disorders'
p668
aS'/wiki/category:veterinary_medicine'
p669
aS'/wiki/adenitis'
p670
aS'/wiki/leprosy'
p671
aS'/wiki/poliomyelitis'
p672
aS'/wiki/chest_photofluorography'
p673
aS'/wiki/category:medical_specialties'
p674
aS'/wiki/global_public_health_intelligence_network'
p675
aS'/wiki/antibiotics'
p676
aS'/wiki/candidiasis'
p677
aS'/wiki/uk_statutory_notification_system'
p678
aS'/wiki/category:pandemics'
p679
aS'/wiki/ectoparasite'
p680
aS'/wiki/category:bacterial_diseases'
p681
aS'/wiki/category:waterborne_diseases'
p682
aS'/wiki/portal:contents'
p683
aS'/wiki/dermatophytosis'
p684
aS'/wiki/urinary_tract_infection'
p685
aS'/wiki/bacterium'
p686
aS'/wiki/special:recentchanges'
p687
aS'/wiki/diphtheria'
p688
aS'/wiki/hookworm'
p689
aS'/wiki/help:categories'
p690
aS'/wiki/category:protozoal_diseases'
p691
aS'/wiki/wikipedia:community_portal'
p692
aS'/wiki/experimental_bacteriology'
p693
aS'/wiki/globalization_and_disease'
p694
aS'/wiki/discitis'
p695
aS'/wiki/maxwell_finland_award'
p696
aS'/wiki/category:microbiology'
p697
aS'/wiki/germ_theory_of_disease'
p698
aS'/wiki/vertically_transmitted_infection'
p699
aS'/wiki/asymptomatic_carrier'
p700
aS'/wiki/fever_of_unknown_origin'
p701
aS'/wiki/scabies'
p702
aS'/wiki/pathogenicity'
p703
aS'/wiki/galveston_national_laboratory'
p704
aS'/wiki/helminths'
p705
aS'/wiki/portal:featured_content'
p706
aS'/wiki/portal:current_events'
p707
aS'/wiki/pathogenic_bacteria'
p708
aS'/wiki/template:infectious_disease'
p709
aS'/wiki/critical_community_size'
p710
aS'/wiki/national_emerging_infectious_diseases_laboratories'
p711
aS'/wiki/international_sanitary_conferences'
p712
aS'/wiki/infectious_disease_pharmacokinetics_laboratory'
p713
aS'/wiki/global_viral'
p714
aS'/wiki/category:zoonoses'
p715
aS'/wiki/gastroenteritis'
p716
aS'/wiki/isolation_ward'
p717
aS'/wiki/preventorium'
p718
aS'/wiki/dental_abscess'
p719
aS'/wiki/south_texas_center_for_emerging_infectious_diseases'
p720
aS'/wiki/history_of_emerging_infectious_diseases'
p721
aS'/wiki/barrier_nursing'
p722
aS'/wiki/measles'
p723
aS'/wiki/anthroponotic_disease'
p724
aS'/wiki/list_of_infectious_diseases'
p725
aS'/wiki/category:viral_diseases'
p726
aS'/wiki/viral_disease'
p727
aS'/wiki/neglected_tropical_diseases'
p728
aS'/wiki/pathogen'
p729
aS'/wiki/category:sepsis'
p730
aS'/wiki/upper_respiratory_tract_infection'
p731
aS'/wiki/association_of_medical_microbiology_and_infectious_disease_canada'
p732
aS'/wiki/antibiogram'
p733
aS'/wiki/kennel_cough'
p734
aS'/wiki/multidrug_tolerance'
p735
aS'/wiki/tropical_ulcer'
p736
aS'/wiki/global_infectious_disease_epidemiology_network'
p737
aS'/wiki/louse'
p738
aS'/wiki/coinfection'
p739
aS'/wiki/pandemic'
p740
aS'/wiki/tropical_disease'
p741
aS'/wiki/help:category'
p742
aS'/wiki/category:infectious_disease_blood_tests'
p743
aS'/wiki/subclinical_infection'
p744
aS'/wiki/encephalitis'
p745
aS'/wiki/special:specialpages'
p746
aS'/wiki/hiv/aids'
p747
aS'/wiki/medical_entomology'
p748
aS'/wiki/urethritis'
p749
aS'/wiki/category:fungal_diseases'
p750
aS'/wiki/ascending_cholangitis'
p751
aS'/wiki/category:infectious_diseases'
p752
aS'/wiki/parasitology'
p753
aS'/wiki/category:neglected_diseases'
p754
aS'/wiki/brain_abscess'
p755
aS'/wiki/category:prions'
p756
atp757
Rp758
sS'/wiki/Category:Medical_devices'
p759
g2
((lp760
S'/wiki/replogle_tube'
p761
aS'/wiki/alterg'
p762
aS'/wiki/main_page'
p763
aS'/wiki/bionic_pancreas'
p764
aS'/wiki/special:recentchangeslinked/category:medical_devices'
p765
aS'/wiki/sinus_implant'
p766
aS'/wiki/single_use_medical_device_reprocessing'
p767
aS'/wiki/help:categories'
p768
aS'/wiki/reliantheart_inc.'
p769
aS'/wiki/category:medical_equipment'
p770
aS'/wiki/inferior_vena_cava_filter'
p771
aS'/wiki/polymethylsiloxane_polyhydrate'
p772
aS'/wiki/cranial_electrotherapy_stimulation'
p773
aS'/wiki/rotarex'
p774
aS'/wiki/ge_healthcare'
p775
aS'/wiki/prepex'
p776
aS'/wiki/shimadzu_corp.'
p777
aS'/wiki/syneron_medical'
p778
aS'/wiki/neurostimulation'
p779
aS'/wiki/help:contents'
p780
aS'/wiki/acelity'
p781
aS'/wiki/wikipedia:community_portal'
p782
aS'/wiki/deep_brain_stimulation'
p783
aS'/wiki/anal_plug'
p784
aS'/wiki/siemens_healthcare'
p785
aS'/wiki/cervical_pessary'
p786
aS'/wiki/defibrillation'
p787
aS'/wiki/team_consulting'
p788
aS'/wiki/category:commons_category_with_local_link_same_as_on_wikidata'
p789
aS'/wiki/ventricular_assist_device'
p790
aS'/wiki/vagus_nerve_stimulation'
p791
aS'/wiki/portal:contents'
p792
aS'/wiki/category:drug_delivery_devices'
p793
aS'/wiki/category:medical_transport_devices'
p794
aS'/wiki/stent'
p795
aS'/wiki/category:regulation_of_medical_devices'
p796
aS'/wiki/surgical_sealant_film'
p797
aS'/wiki/special:recentchanges'
p798
aS'/wiki/wikipedia:about'
p799
aS'/wiki/prosthesis'
p800
aS'/wiki/valvulotome'
p801
aS'/wiki/zeltiq_aesthetics'
p802
aS'/wiki/special:random'
p803
aS'/wiki/impella'
p804
aS'/wiki/artificial_cardiac_pacemaker'
p805
aS'/wiki/electroceuticals'
p806
aS'/wiki/implantable_loop_recorder'
p807
aS'/wiki/venus_concept'
p808
aS'/wiki/retinal_implant'
p809
aS'/wiki/orcam_device'
p810
aS'/wiki/category:medical_technology'
p811
aS'/wiki/hong_kong_international_medical_devices_and_supplies_fair'
p812
aS'/wiki/eyerinator'
p813
aS'/wiki/category:medical_devices'
p814
aS'/wiki/help:category'
p815
aS'/wiki/cochlear_implant'
p816
aS'/wiki/tinnitracks'
p817
aS'/wiki/iontophoresis'
p818
aS'/wiki/wikipedia:file_upload_wizard'
p819
aS'/wiki/tissuemed'
p820
aS'/wiki/niagara_therapy'
p821
aS'/wiki/wikipedia:general_disclaimer'
p822
aS'/wiki/portal:featured_content'
p823
aS'/wiki/special:specialpages'
p824
aS'/wiki/spinal_cord_stimulator'
p825
aS'/wiki/portal:current_events'
p826
aS'/wiki/philips'
p827
aS'/wiki/special:whatlinkshere/category:medical_devices'
p828
aS'/wiki/prosthetic_neuronal_memory_silicon_chips'
p829
aS'/wiki/medical_device'
p830
aS'/wiki/scoliometer'
p831
aS'/wiki/skin_cell_gun'
p832
aS'/wiki/toshiba'
p833
aS'/wiki/medtronic'
p834
atp835
Rp836
s.